target datalayout = "e-m:e-p270:32:32-p271:32:32-p272:64:64-i64:64-i128:128-f80:128-n8:16:32:64-S128"
target triple = "x86_64-pc-linux-gnu"

%struct.cli_ctx_tag = type { ptr, ptr, ptr, ptr, ptr, ptr, ptr, i64, ptr, i32, i32, ptr, i32, i32, ptr, [16 x i8], ptr, ptr, ptr, ptr, ptr, ptr, %struct.timeval, i8, i8 }
%struct.timeval = type { i64, i64 }

@.str.338 = private unnamed_addr constant [3 x i8] c"PE\00", align 1
@.str.352 = private unnamed_addr constant [11 x i8] c"Heuristics\00", align 1

; Function Attrs: nounwind uwtable
define internal ptr @get_pe_property(ptr noundef %0) #0 {
  %2 = alloca ptr, align 8
  %3 = alloca ptr, align 8
  %4 = alloca ptr, align 8
  store ptr %0, ptr %3, align 8
  %5 = load ptr, ptr %3, align 8
  %6 = icmp ne ptr %5, null
  br i1 %6, label %7, label %12

7:                                                ; preds = %1
  %8 = load ptr, ptr %3, align 8
  %9 = getelementptr inbounds %struct.cli_ctx_tag, ptr %8, i32 0, i32 21
  %10 = load ptr, ptr %9, align 8
  %11 = icmp ne ptr %10, null
  br i1 %11, label %13, label %12

12:                                               ; preds = %7, %1
  store ptr null, ptr %2, align 8
  br label %32

13:                                               ; preds = %7
  %14 = load ptr, ptr %3, align 8
  %15 = getelementptr inbounds %struct.cli_ctx_tag, ptr %14, i32 0, i32 21
  %16 = load ptr, ptr %15, align 8
  %17 = call i32 @json_object_object_get_ex(ptr noundef %16, ptr noundef @.str.338, ptr noundef %4)
  %18 = icmp ne i32 %17, 0
  br i1 %18, label %30, label %19

19:                                               ; preds = %13
  %20 = call ptr @json_object_new_object()
  store ptr %20, ptr %4, align 8
  %21 = load ptr, ptr %4, align 8
  %22 = icmp ne ptr %21, null
  br i1 %22, label %24, label %23

23:                                               ; preds = %19
  store ptr null, ptr %2, align 8
  br label %32

24:                                               ; preds = %19
  %25 = load ptr, ptr %3, align 8
  %26 = getelementptr inbounds %struct.cli_ctx_tag, ptr %25, i32 0, i32 21
  %27 = load ptr, ptr %26, align 8
  %28 = load ptr, ptr %4, align 8
  %29 = call i32 @json_object_object_add(ptr noundef %27, ptr noundef @.str.338, ptr noundef %28)
  br label %30

30:                                               ; preds = %24, %13
  %31 = load ptr, ptr %4, align 8
  store ptr %31, ptr %2, align 8
  br label %32

32:                                               ; preds = %30, %23, %12
  %33 = load ptr, ptr %2, align 8
  ret ptr %33
}

; Function Attrs: nounwind uwtable
define internal void @pe_add_heuristic_property(ptr noundef %0, ptr noundef %1) #0 {
  %3 = alloca ptr, align 8
  %4 = alloca ptr, align 8
  %5 = alloca ptr, align 8
  %6 = alloca ptr, align 8
  %7 = alloca ptr, align 8
  store ptr %0, ptr %3, align 8
  store ptr %1, ptr %4, align 8
  %8 = load ptr, ptr %3, align 8
  %9 = call ptr @get_pe_property(ptr noundef %8)
  store ptr %9, ptr %6, align 8
  %10 = load ptr, ptr %6, align 8
  %11 = icmp ne ptr %10, null
  br i1 %11, label %13, label %12

12:                                               ; preds = %2
  br label %36

13:                                               ; preds = %2
  %14 = load ptr, ptr %6, align 8
  %15 = call i32 @json_object_object_get_ex(ptr noundef %14, ptr noundef @.str.352, ptr noundef %5)
  %16 = icmp ne i32 %15, 0
  br i1 %16, label %26, label %17

17:                                               ; preds = %13
  %18 = call ptr @json_object_new_array()
  store ptr %18, ptr %5, align 8
  %19 = load ptr, ptr %5, align 8
  %20 = icmp ne ptr %19, null
  br i1 %20, label %22, label %21

21:                                               ; preds = %17
  br label %36

22:                                               ; preds = %17
  %23 = load ptr, ptr %6, align 8
  %24 = load ptr, ptr %5, align 8
  %25 = call i32 @json_object_object_add(ptr noundef %23, ptr noundef @.str.352, ptr noundef %24)
  br label %26

26:                                               ; preds = %22, %13
  %27 = load ptr, ptr %4, align 8
  %28 = call ptr @json_object_new_string(ptr noundef %27)
  store ptr %28, ptr %7, align 8
  %29 = load ptr, ptr %7, align 8
  %30 = icmp ne ptr %29, null
  br i1 %30, label %32, label %31

31:                                               ; preds = %26
  br label %36

32:                                               ; preds = %26
  %33 = load ptr, ptr %5, align 8
  %34 = load ptr, ptr %7, align 8
  %35 = call i32 @json_object_array_add(ptr noundef %33, ptr noundef %34)
  br label %36

36:                                               ; preds = %32, %31, %21, %12
  ret void
}