; Function Attrs: nounwind uwtable
define internal fastcc void @pe_add_heuristic_property(ptr noundef readonly %0, ptr noundef %1) unnamed_addr #1 {
  %3 = alloca ptr, align 8
  %4 = alloca ptr, align 8
  call void @llvm.lifetime.start.p0(i64 8, ptr nonnull %3)
  %.not.i = icmp eq ptr %0, null
  br i1 %.not.i, label %get_pe_property.exit.thread, label %5

5:                                                ; preds = %2
  %6 = getelementptr inbounds i8, ptr %0, i64 160
  %7 = load ptr, ptr %6, align 8
  %.not8.i = icmp eq ptr %7, null
  br i1 %.not8.i, label %get_pe_property.exit.thread, label %8

8:                                                ; preds = %5
  %9 = call i32 @json_object_object_get_ex(ptr noundef nonnull %7, ptr noundef nonnull @.str.338, ptr noundef nonnull %3) #20
  %.not9.i = icmp eq i32 %9, 0
  br i1 %.not9.i, label %10, label %get_pe_property.exit

10:                                               ; preds = %8
  %11 = call ptr @json_object_new_object() #20
  store ptr %11, ptr %3, align 8
  %.not10.i = icmp eq ptr %11, null
  br i1 %.not10.i, label %get_pe_property.exit.thread, label %12

12:                                               ; preds = %10
  %13 = load ptr, ptr %6, align 8
  %14 = call i32 @json_object_object_add(ptr noundef %13, ptr noundef nonnull @.str.338, ptr noundef nonnull %11) #20
  br label %get_pe_property.exit

get_pe_property.exit.thread:                      ; preds = %5, %2, %10
  call void @llvm.lifetime.end.p0(i64 8, ptr nonnull %3)
  br label %27

get_pe_property.exit:                             ; preds = %8, %12
  %15 = load ptr, ptr %3, align 8
  call void @llvm.lifetime.end.p0(i64 8, ptr nonnull %3)
  %.not = icmp eq ptr %15, null
  br i1 %.not, label %27, label %16

16:                                               ; preds = %get_pe_property.exit
  %17 = call i32 @json_object_object_get_ex(ptr noundef nonnull %15, ptr noundef nonnull @.str.352, ptr noundef nonnull %4) #20
  %.not9 = icmp eq i32 %17, 0
  br i1 %.not9, label %18, label %22

18:                                               ; preds = %16
  %19 = call ptr @json_object_new_array() #20
  store ptr %19, ptr %4, align 8
  %.not10 = icmp eq ptr %19, null
  br i1 %.not10, label %27, label %20

20:                                               ; preds = %18
  %21 = call i32 @json_object_object_add(ptr noundef nonnull %15, ptr noundef nonnull @.str.352, ptr noundef nonnull %19) #20
  br label %22

22:                                               ; preds = %20, %16
  %23 = call ptr @json_object_new_string(ptr noundef %1) #20
  %.not11 = icmp eq ptr %23, null
  br i1 %.not11, label %27, label %24

24:                                               ; preds = %22
  %25 = load ptr, ptr %4, align 8
  %26 = call i32 @json_object_array_add(ptr noundef %25, ptr noundef nonnull %23) #20
  br label %27

27:                                               ; preds = %get_pe_property.exit.thread, %22, %18, %get_pe_property.exit, %24
  ret void
}